---
triple:          'arm64-apple-darwin'
binary-path:     '/Users/pupil/learn/c/data_structure/stack_and_queue/hz265'
relocations:
  - { offsetInCU: 0x6B8A, offset: 0x6B8A, size: 0x8, addend: 0x0, symName: __ZNSt3__14endlB8ne180100IcNS_11char_traitsIcEEEERNS_13basic_ostreamIT_T0_EES7_, symObjAddr: 0x614, symBinAddr: 0x1000038D0, symSize: 0x58 }
  - { offsetInCU: 0x6BCA, offset: 0x6BCA, size: 0x8, addend: 0x0, symName: __ZNSt3__1neB8ne180100ERKNS_16__deque_iteratorIcPcRcPS1_lLl4096EEES6_, symObjAddr: 0xB38, symBinAddr: 0x100003DF4, symSize: 0x34 }
  - { offsetInCU: 0x6C07, offset: 0x6C07, size: 0x8, addend: 0x0, symName: __ZNSt3__1eqB8ne180100ERKNS_16__deque_iteratorIcPcRcPS1_lLl4096EEES6_, symObjAddr: 0xDE4, symBinAddr: 0x1000040A0, symSize: 0x30 }
  - { offsetInCU: 0x6C44, offset: 0x6C44, size: 0x8, addend: 0x0, symName: __ZNSt3__119__libcpp_deallocateB8ne180100EPvmm, symObjAddr: 0xEEC, symBinAddr: 0x1000041A8, symSize: 0x30 }
  - { offsetInCU: 0x6C8C, offset: 0x6C8C, size: 0x8, addend: 0x0, symName: __ZNSt3__127__do_deallocate_handle_sizeB8ne180100IJEEEvPvmDpT_, symObjAddr: 0xF1C, symBinAddr: 0x1000041D8, symSize: 0x28 }
  - { offsetInCU: 0x6CCA, offset: 0x6CCA, size: 0x8, addend: 0x0, symName: __ZNSt3__124__libcpp_operator_deleteB8ne180100IJPvEEEvDpT_, symObjAddr: 0xF44, symBinAddr: 0x100004200, symSize: 0x24 }
  - { offsetInCU: 0x6CFF, offset: 0x6CFF, size: 0x8, addend: 0x0, symName: __ZNSt3__112__to_addressB8ne180100IPcEEPT_S3_, symObjAddr: 0x11C8, symBinAddr: 0x100004484, symSize: 0x14 }
  - { offsetInCU: 0x6D67, offset: 0x6D67, size: 0x8, addend: 0x0, symName: __ZNSt3__112__to_addressB8ne180100IcEEPT_S2_, symObjAddr: 0x1900, symBinAddr: 0x100004BBC, symSize: 0x14 }
  - { offsetInCU: 0x6D9C, offset: 0x6D9C, size: 0x8, addend: 0x0, symName: __ZNSt3__13maxB8ne180100ImEERKT_S3_S3_, symObjAddr: 0x2734, symBinAddr: 0x1000059F0, symSize: 0x2C }
  - { offsetInCU: 0x7230, offset: 0x7230, size: 0x8, addend: 0x0, symName: __ZNSt3__14swapB8ne180100IPPcEENS_9enable_ifIXaasr21is_move_constructibleIT_EE5valuesr18is_move_assignableIS4_EE5valueEvE4typeERS4_S7_, symObjAddr: 0x2D44, symBinAddr: 0x100006000, symSize: 0x3C }
  - { offsetInCU: 0x7281, offset: 0x7281, size: 0x8, addend: 0x0, symName: __ZNSt3__14moveB8ne180100IPPcS2_EET0_T_S4_S3_, symObjAddr: 0x2E28, symBinAddr: 0x1000060E4, symSize: 0x40 }
  - { offsetInCU: 0x72DB, offset: 0x72DB, size: 0x8, addend: 0x0, symName: __ZNSt3__16__moveB8ne180100INS_17_ClassicAlgPolicyEPPcS3_S3_EENS_4pairIT0_T2_EES5_T1_S6_, symObjAddr: 0x2F30, symBinAddr: 0x1000061EC, symSize: 0x44 }
  - { offsetInCU: 0x7347, offset: 0x7347, size: 0x8, addend: 0x0, symName: __ZNSt3__123__dispatch_copy_or_moveB8ne180100INS_17_ClassicAlgPolicyENS_11__move_loopIS1_EENS_14__move_trivialEPPcS6_S6_EENS_4pairIT2_T4_EES8_T3_S9_, symObjAddr: 0x2F74, symBinAddr: 0x100006230, symSize: 0x44 }
  - { offsetInCU: 0x73C5, offset: 0x73C5, size: 0x8, addend: 0x0, symName: __ZNSt3__121__unwrap_and_dispatchB8ne180100INS_10__overloadINS_11__move_loopINS_17_ClassicAlgPolicyEEENS_14__move_trivialEEEPPcS8_S8_Li0EEENS_4pairIT0_T2_EESA_T1_SB_, symObjAddr: 0x2FB8, symBinAddr: 0x100006274, symSize: 0xB4 }
  - { offsetInCU: 0x7453, offset: 0x7453, size: 0x8, addend: 0x0, symName: __ZNSt3__114__unwrap_rangeB8ne180100IPPcS2_EENS_4pairIT0_S4_EET_S6_, symObjAddr: 0x306C, symBinAddr: 0x100006328, symSize: 0x60 }
  - { offsetInCU: 0x7617, offset: 0x7617, size: 0x8, addend: 0x0, symName: __ZNSt3__113__unwrap_iterB8ne180100IPPcNS_18__unwrap_iter_implIS2_Lb1EEELi0EEEDTclsrT0_8__unwrapclsr3stdE7declvalIT_EEEES6_, symObjAddr: 0x3114, symBinAddr: 0x1000063D0, symSize: 0x24 }
  - { offsetInCU: 0x765B, offset: 0x765B, size: 0x8, addend: 0x0, symName: __ZNSt3__19make_pairB8ne180100IPPcS2_EENS_4pairINS_18__unwrap_ref_decayIT_E4typeENS4_IT0_E4typeEEEOS5_OS8_, symObjAddr: 0x3138, symBinAddr: 0x1000063F4, symSize: 0x38 }
  - { offsetInCU: 0x76AA, offset: 0x76AA, size: 0x8, addend: 0x0, symName: __ZNSt3__114__rewrap_rangeB8ne180100IPPcS2_EET_S3_T0_, symObjAddr: 0x3170, symBinAddr: 0x10000642C, symSize: 0x2C }
  - { offsetInCU: 0x76F6, offset: 0x76F6, size: 0x8, addend: 0x0, symName: __ZNSt3__113__rewrap_iterB8ne180100IPPcS2_NS_18__unwrap_iter_implIS2_Lb1EEEEET_S5_T0_, symObjAddr: 0x319C, symBinAddr: 0x100006458, symSize: 0x3C }
  - { offsetInCU: 0x774B, offset: 0x774B, size: 0x8, addend: 0x0, symName: __ZNSt3__119__copy_trivial_implB8ne180100IPcS1_EENS_4pairIPT_PT0_EES4_S4_S6_, symObjAddr: 0x31D8, symBinAddr: 0x100006494, symSize: 0x80 }
  - { offsetInCU: 0x77B3, offset: 0x77B3, size: 0x8, addend: 0x0, symName: __ZNSt3__119__constexpr_memmoveB8ne180100IPcS1_Li0EEEPT_S3_PT0_NS_15__element_countE, symObjAddr: 0x3258, symBinAddr: 0x100006514, symSize: 0x64 }
  - { offsetInCU: 0x7821, offset: 0x7821, size: 0x8, addend: 0x0, symName: __ZNSt3__19make_pairB8ne180100IRPPcS2_EENS_4pairINS_18__unwrap_ref_decayIT_E4typeENS5_IT0_E4typeEEEOS6_OS9_, symObjAddr: 0x32BC, symBinAddr: 0x100006578, symSize: 0x38 }
  - { offsetInCU: 0x78C3, offset: 0x78C3, size: 0x8, addend: 0x0, symName: __ZNSt3__18distanceB8ne180100INS_13move_iteratorIPPcEEEENS_15iterator_traitsIT_E15difference_typeES6_S6_, symObjAddr: 0x3524, symBinAddr: 0x1000067E0, symSize: 0x3C }
  - { offsetInCU: 0x7906, offset: 0x7906, size: 0x8, addend: 0x0, symName: __ZNSt3__110__distanceB8ne180100INS_13move_iteratorIPPcEEEENS_15iterator_traitsIT_E15difference_typeES6_S6_NS_26random_access_iterator_tagE, symObjAddr: 0x3728, symBinAddr: 0x1000069E4, symSize: 0x30 }
  - { offsetInCU: 0x7953, offset: 0x7953, size: 0x8, addend: 0x0, symName: __ZNSt3__1miB8ne180100IPPcS2_EEDTmicldtfp_4baseEcldtfp0_4baseEERKNS_13move_iteratorIT_EERKNS4_IT0_EE, symObjAddr: 0x3758, symBinAddr: 0x100006A14, symSize: 0x48 }
  - { offsetInCU: 0x79A2, offset: 0x79A2, size: 0x8, addend: 0x0, symName: __ZNSt3__117__libcpp_allocateB8ne180100Emm, symObjAddr: 0x38B0, symBinAddr: 0x100006B6C, symSize: 0x28 }
  - { offsetInCU: 0x79DF, offset: 0x79DF, size: 0x8, addend: 0x0, symName: __ZNSt3__121__libcpp_operator_newB8ne180100IJmEEEPvDpT_, symObjAddr: 0x38EC, symBinAddr: 0x100006BA8, symSize: 0x24 }
  - { offsetInCU: 0x7A18, offset: 0x7A18, size: 0x8, addend: 0x0, symName: __ZNSt3__113move_backwardB8ne180100IPPcS2_EET0_T_S4_S3_, symObjAddr: 0x3910, symBinAddr: 0x100006BCC, symSize: 0x40 }
  - { offsetInCU: 0x7A72, offset: 0x7A72, size: 0x8, addend: 0x0, symName: __ZNSt3__115__move_backwardB8ne180100INS_17_ClassicAlgPolicyEPPcS3_S3_EENS_4pairIT0_T2_EES5_T1_S6_, symObjAddr: 0x3950, symBinAddr: 0x100006C0C, symSize: 0x44 }
  - { offsetInCU: 0x7ADE, offset: 0x7ADE, size: 0x8, addend: 0x0, symName: __ZNSt3__123__dispatch_copy_or_moveB8ne180100INS_17_ClassicAlgPolicyENS_20__move_backward_loopIS1_EENS_23__move_backward_trivialEPPcS6_S6_EENS_4pairIT2_T4_EES8_T3_S9_, symObjAddr: 0x3994, symBinAddr: 0x100006C50, symSize: 0x44 }
  - { offsetInCU: 0x7B5C, offset: 0x7B5C, size: 0x8, addend: 0x0, symName: __ZNSt3__121__unwrap_and_dispatchB8ne180100INS_10__overloadINS_20__move_backward_loopINS_17_ClassicAlgPolicyEEENS_23__move_backward_trivialEEEPPcS8_S8_Li0EEENS_4pairIT0_T2_EESA_T1_SB_, symObjAddr: 0x39D8, symBinAddr: 0x100006C94, symSize: 0xB4 }
  - { offsetInCU: 0x7C30, offset: 0x7C30, size: 0x8, addend: 0x0, symName: __ZNSt3__128__copy_backward_trivial_implB8ne180100IPcS1_EENS_4pairIPT_PT0_EES4_S4_S6_, symObjAddr: 0x3AD4, symBinAddr: 0x100006D90, symSize: 0x90 }
  - { offsetInCU: 0x7C98, offset: 0x7C98, size: 0x8, addend: 0x0, symName: __ZNSt3__19make_pairB8ne180100IRPPcS3_EENS_4pairINS_18__unwrap_ref_decayIT_E4typeENS5_IT0_E4typeEEEOS6_OS9_, symObjAddr: 0x3B64, symBinAddr: 0x100006E20, symSize: 0x38 }
  - { offsetInCU: 0x7CE7, offset: 0x7CE7, size: 0x8, addend: 0x0, symName: __ZNSt3__13maxB8ne180100ImNS_6__lessIvvEEEERKT_S5_S5_T0_, symObjAddr: 0x3C0C, symBinAddr: 0x100006EC8, symSize: 0x54 }
  - { offsetInCU: 0x7D86, offset: 0x7D86, size: 0x8, addend: 0x0, symName: __ZNSt3__119__allocate_at_leastB8ne180100INS_9allocatorIPcEEEENS_19__allocation_resultINS_16allocator_traitsIT_E7pointerEEERS6_m, symObjAddr: 0x3DA4, symBinAddr: 0x100007060, symSize: 0x40 }
  - { offsetInCU: 0x7DC9, offset: 0x7DC9, size: 0x8, addend: 0x0, symName: __ZNSt3__118__constexpr_strlenB8ne180100EPKc, symObjAddr: 0x452C, symBinAddr: 0x1000077E8, symSize: 0x24 }
  - { offsetInCU: 0x7DF5, offset: 0x7DF5, size: 0x8, addend: 0x0, symName: __ZNSt3__19use_facetB8ne180100INS_5ctypeIcEEEERKT_RKNS_6localeE, symObjAddr: 0x4630, symBinAddr: 0x1000078EC, symSize: 0x2C }
  - { offsetInCU: 0x8490, offset: 0x8490, size: 0x8, addend: 0x0, symName: __ZSt28__throw_bad_array_new_lengthB8ne180100v, symObjAddr: 0x387C, symBinAddr: 0x100006B38, symSize: 0x34 }
  - { offsetInCU: 0xABD7, offset: 0xABD7, size: 0x8, addend: 0x0, symName: __Z7isValidNSt3__112basic_stringIcNS_11char_traitsIcEENS_9allocatorIcEEEEii, symObjAddr: 0x0, symBinAddr: 0x1000032BC, symSize: 0x27C }
  - { offsetInCU: 0xAC81, offset: 0xAC81, size: 0x8, addend: 0x0, symName: __ZNSt3__15stackIcNS_5dequeIcNS_9allocatorIcEEEEEC1B8ne180100Ev, symObjAddr: 0x27C, symBinAddr: 0x100003538, symSize: 0x2C }
  - { offsetInCU: 0xACAB, offset: 0xACAB, size: 0x8, addend: 0x0, symName: __ZNSt3__112basic_stringIcNS_11char_traitsIcEENS_9allocatorIcEEEixB8ne180100Em, symObjAddr: 0x2A8, symBinAddr: 0x100003564, symSize: 0x48 }
  - { offsetInCU: 0xACE0, offset: 0xACE0, size: 0x8, addend: 0x0, symName: __ZNKSt3__15stackIcNS_5dequeIcNS_9allocatorIcEEEEE5emptyB8ne180100Ev, symObjAddr: 0x2F0, symBinAddr: 0x1000035AC, symSize: 0x28 }
  - { offsetInCU: 0xAD06, offset: 0xAD06, size: 0x8, addend: 0x0, symName: __ZNSt3__15stackIcNS_5dequeIcNS_9allocatorIcEEEEE3topB8ne180100Ev, symObjAddr: 0x318, symBinAddr: 0x1000035D4, symSize: 0x24 }
  - { offsetInCU: 0xAD2C, offset: 0xAD2C, size: 0x8, addend: 0x0, symName: __ZNSt3__15stackIcNS_5dequeIcNS_9allocatorIcEEEEE3popB8ne180100Ev, symObjAddr: 0x33C, symBinAddr: 0x1000035F8, symSize: 0x24 }
  - { offsetInCU: 0xAD52, offset: 0xAD52, size: 0x8, addend: 0x0, symName: __ZNSt3__15stackIcNS_5dequeIcNS_9allocatorIcEEEEE4pushB8ne180100ERKc, symObjAddr: 0x360, symBinAddr: 0x10000361C, symSize: 0x2C }
  - { offsetInCU: 0xAD86, offset: 0xAD86, size: 0x8, addend: 0x0, symName: __ZNSt3__15stackIcNS_5dequeIcNS_9allocatorIcEEEEED1Ev, symObjAddr: 0x38C, symBinAddr: 0x100003648, symSize: 0x2C }
  - { offsetInCU: 0xADB2, offset: 0xADB2, size: 0x8, addend: 0x0, symName: _main, symObjAddr: 0x3B8, symBinAddr: 0x100003674, symSize: 0x1A8 }
  - { offsetInCU: 0xAE36, offset: 0xAE36, size: 0x8, addend: 0x0, symName: __ZNSt3__112basic_stringIcNS_11char_traitsIcEENS_9allocatorIcEEEC1B8ne180100ILi0EEEPKc, symObjAddr: 0x560, symBinAddr: 0x10000381C, symSize: 0x34 }
  - { offsetInCU: 0xAE75, offset: 0xAE75, size: 0x8, addend: 0x0, symName: __ZNKSt3__112basic_stringIcNS_11char_traitsIcEENS_9allocatorIcEEE4sizeB8ne180100Ev, symObjAddr: 0x594, symBinAddr: 0x100003850, symSize: 0x54 }
  - { offsetInCU: 0xAF48, offset: 0xAF48, size: 0x8, addend: 0x0, symName: __ZNSt3__113basic_ostreamIcNS_11char_traitsIcEEElsB8ne180100EPFRS3_S4_E, symObjAddr: 0x5E8, symBinAddr: 0x1000038A4, symSize: 0x2C }
  - { offsetInCU: 0xAF7C, offset: 0xAF7C, size: 0x8, addend: 0x0, symName: __ZNSt3__15stackIcNS_5dequeIcNS_9allocatorIcEEEEED2Ev, symObjAddr: 0x66C, symBinAddr: 0x100003928, symSize: 0x2C }
  - { offsetInCU: 0xAFA8, offset: 0xAFA8, size: 0x8, addend: 0x0, symName: __ZNSt3__15dequeIcNS_9allocatorIcEEED1B8ne180100Ev, symObjAddr: 0x698, symBinAddr: 0x100003954, symSize: 0x2C }
  - { offsetInCU: 0xAFD2, offset: 0xAFD2, size: 0x8, addend: 0x0, symName: __ZNSt3__15dequeIcNS_9allocatorIcEEED2B8ne180100Ev, symObjAddr: 0x6C4, symBinAddr: 0x100003980, symSize: 0xA4 }
  - { offsetInCU: 0xB02B, offset: 0xB02B, size: 0x8, addend: 0x0, symName: __ZNSt3__15dequeIcNS_9allocatorIcEEE5clearEv, symObjAddr: 0x768, symBinAddr: 0x100003A24, symSize: 0x194 }
  - { offsetInCU: 0xB089, offset: 0xB089, size: 0x8, addend: 0x0, symName: __ZNKSt3__15dequeIcNS_9allocatorIcEEE17__annotate_deleteB8ne180100Ev, symObjAddr: 0x8FC, symBinAddr: 0x100003BB8, symSize: 0x10 }
  - { offsetInCU: 0xB0AF, offset: 0xB0AF, size: 0x8, addend: 0x0, symName: __ZNSt3__114__split_bufferIPcNS_9allocatorIS1_EEE5beginB8ne180100Ev, symObjAddr: 0x90C, symBinAddr: 0x100003BC8, symSize: 0x18 }
  - { offsetInCU: 0xB0D5, offset: 0xB0D5, size: 0x8, addend: 0x0, symName: __ZNSt3__114__split_bufferIPcNS_9allocatorIS1_EEE3endB8ne180100Ev, symObjAddr: 0x924, symBinAddr: 0x100003BE0, symSize: 0x18 }
  - { offsetInCU: 0xB0FB, offset: 0xB0FB, size: 0x8, addend: 0x0, symName: __ZNSt3__116allocator_traitsINS_9allocatorIcEEE10deallocateB8ne180100ERS2_Pcm, symObjAddr: 0x93C, symBinAddr: 0x100003BF8, symSize: 0x34 }
  - { offsetInCU: 0xB13D, offset: 0xB13D, size: 0x8, addend: 0x0, symName: __ZNSt3__15dequeIcNS_9allocatorIcEEE7__allocB8ne180100Ev, symObjAddr: 0x970, symBinAddr: 0x100003C2C, symSize: 0x28 }
  - { offsetInCU: 0xB163, offset: 0xB163, size: 0x8, addend: 0x0, symName: __ZNSt3__114__split_bufferIPcNS_9allocatorIS1_EEED1Ev, symObjAddr: 0x998, symBinAddr: 0x100003C54, symSize: 0x2C }
  - { offsetInCU: 0xB18F, offset: 0xB18F, size: 0x8, addend: 0x0, symName: __ZNSt3__15dequeIcNS_9allocatorIcEEE5beginB8ne180100Ev, symObjAddr: 0x9C4, symBinAddr: 0x100003C80, symSize: 0xB8 }
  - { offsetInCU: 0xB1C5, offset: 0xB1C5, size: 0x8, addend: 0x0, symName: __ZNSt3__15dequeIcNS_9allocatorIcEEE3endB8ne180100Ev, symObjAddr: 0xA7C, symBinAddr: 0x100003D38, symSize: 0xBC }
  - { offsetInCU: 0xB20B, offset: 0xB20B, size: 0x8, addend: 0x0, symName: __ZNSt3__116allocator_traitsINS_9allocatorIcEEE7destroyB8ne180100IcvEEvRS2_PT_, symObjAddr: 0xB78, symBinAddr: 0x100003E34, symSize: 0x2C }
  - { offsetInCU: 0xB248, offset: 0xB248, size: 0x8, addend: 0x0, symName: __ZNKSt3__116__deque_iteratorIcPcRcPS1_lLl4096EEdeB8ne180100Ev, symObjAddr: 0xBA4, symBinAddr: 0x100003E60, symSize: 0x18 }
  - { offsetInCU: 0xB26E, offset: 0xB26E, size: 0x8, addend: 0x0, symName: __ZNSt3__116__deque_iteratorIcPcRcPS1_lLl4096EEppB8ne180100Ev, symObjAddr: 0xBBC, symBinAddr: 0x100003E78, symSize: 0x68 }
  - { offsetInCU: 0xB294, offset: 0xB294, size: 0x8, addend: 0x0, symName: __ZNSt3__15dequeIcNS_9allocatorIcEEE6__sizeB8ne180100Ev, symObjAddr: 0xC24, symBinAddr: 0x100003EE0, symSize: 0x28 }
  - { offsetInCU: 0xB2BA, offset: 0xB2BA, size: 0x8, addend: 0x0, symName: __ZNKSt3__114__split_bufferIPcNS_9allocatorIS1_EEE4sizeB8ne180100Ev, symObjAddr: 0xC4C, symBinAddr: 0x100003F08, symSize: 0x28 }
  - { offsetInCU: 0xB2E0, offset: 0xB2E0, size: 0x8, addend: 0x0, symName: __ZNSt3__114__split_bufferIPcNS_9allocatorIS1_EEE5frontB8ne180100Ev, symObjAddr: 0xC74, symBinAddr: 0x100003F30, symSize: 0x18 }
  - { offsetInCU: 0xB306, offset: 0xB306, size: 0x8, addend: 0x0, symName: __ZNSt3__114__split_bufferIPcNS_9allocatorIS1_EEE9pop_frontB8ne180100Ev, symObjAddr: 0xC8C, symBinAddr: 0x100003F48, symSize: 0x2C }
  - { offsetInCU: 0xB32C, offset: 0xB32C, size: 0x8, addend: 0x0, symName: __ZNKSt3__15dequeIcNS_9allocatorIcEEE14__annotate_newB8ne180100Em, symObjAddr: 0xCB8, symBinAddr: 0x100003F74, symSize: 0x14 }
  - { offsetInCU: 0xB361, offset: 0xB361, size: 0x8, addend: 0x0, symName: __ZNKSt3__114__split_bufferIPcNS_9allocatorIS1_EEE5emptyB8ne180100Ev, symObjAddr: 0xCCC, symBinAddr: 0x100003F88, symSize: 0x28 }
  - { offsetInCU: 0xB387, offset: 0xB387, size: 0x8, addend: 0x0, symName: __ZNSt3__116__deque_iteratorIcPcRcPS1_lLl4096EEC1B8ne180100ES3_S1_, symObjAddr: 0xCF4, symBinAddr: 0x100003FB0, symSize: 0x3C }
  - { offsetInCU: 0xB3CF, offset: 0xB3CF, size: 0x8, addend: 0x0, symName: __ZNSt3__116__deque_iteratorIcPcRcPS1_lLl4096EEC2B8ne180100ES3_S1_, symObjAddr: 0xD30, symBinAddr: 0x100003FEC, symSize: 0x2C }
  - { offsetInCU: 0xB417, offset: 0xB417, size: 0x8, addend: 0x0, symName: __ZNKSt3__15dequeIcNS_9allocatorIcEEE4sizeB8ne180100Ev, symObjAddr: 0xD5C, symBinAddr: 0x100004018, symSize: 0x28 }
  - { offsetInCU: 0xB43D, offset: 0xB43D, size: 0x8, addend: 0x0, symName: __ZNKSt3__15dequeIcNS_9allocatorIcEEE6__sizeB8ne180100Ev, symObjAddr: 0xD84, symBinAddr: 0x100004040, symSize: 0x28 }
  - { offsetInCU: 0xB463, offset: 0xB463, size: 0x8, addend: 0x0, symName: __ZNKSt3__117__compressed_pairImNS_9allocatorIcEEE5firstB8ne180100Ev, symObjAddr: 0xDAC, symBinAddr: 0x100004068, symSize: 0x24 }
  - { offsetInCU: 0xB489, offset: 0xB489, size: 0x8, addend: 0x0, symName: __ZNKSt3__122__compressed_pair_elemImLi0ELb0EE5__getB8ne180100Ev, symObjAddr: 0xDD0, symBinAddr: 0x10000408C, symSize: 0x14 }
  - { offsetInCU: 0xB4AF, offset: 0xB4AF, size: 0x8, addend: 0x0, symName: __ZNSt3__19allocatorIcE7destroyB8ne180100EPc, symObjAddr: 0xE14, symBinAddr: 0x1000040D0, symSize: 0x14 }
  - { offsetInCU: 0xB4E3, offset: 0xB4E3, size: 0x8, addend: 0x0, symName: __ZNSt3__117__compressed_pairImNS_9allocatorIcEEE5firstB8ne180100Ev, symObjAddr: 0xE28, symBinAddr: 0x1000040E4, symSize: 0x24 }
  - { offsetInCU: 0xB509, offset: 0xB509, size: 0x8, addend: 0x0, symName: __ZNSt3__122__compressed_pair_elemImLi0ELb0EE5__getB8ne180100Ev, symObjAddr: 0xE4C, symBinAddr: 0x100004108, symSize: 0x14 }
  - { offsetInCU: 0xB52F, offset: 0xB52F, size: 0x8, addend: 0x0, symName: __ZNSt3__114__split_bufferIPcNS_9allocatorIS1_EEE19__destruct_at_beginB8ne180100EPS1_, symObjAddr: 0xE60, symBinAddr: 0x10000411C, symSize: 0x2C }
  - { offsetInCU: 0xB563, offset: 0xB563, size: 0x8, addend: 0x0, symName: __ZNSt3__114__split_bufferIPcNS_9allocatorIS1_EEE19__destruct_at_beginEPS1_NS_17integral_constantIbLb1EEE, symObjAddr: 0xE8C, symBinAddr: 0x100004148, symSize: 0x20 }
  - { offsetInCU: 0xB5A3, offset: 0xB5A3, size: 0x8, addend: 0x0, symName: __ZNSt3__19allocatorIcE10deallocateB8ne180100EPcm, symObjAddr: 0xEAC, symBinAddr: 0x100004168, symSize: 0x40 }
  - { offsetInCU: 0xB5E5, offset: 0xB5E5, size: 0x8, addend: 0x0, symName: __ZNSt3__117__compressed_pairImNS_9allocatorIcEEE6secondB8ne180100Ev, symObjAddr: 0xF68, symBinAddr: 0x100004224, symSize: 0x24 }
  - { offsetInCU: 0xB60B, offset: 0xB60B, size: 0x8, addend: 0x0, symName: __ZNSt3__122__compressed_pair_elemINS_9allocatorIcEELi1ELb1EE5__getB8ne180100Ev, symObjAddr: 0xF8C, symBinAddr: 0x100004248, symSize: 0x14 }
  - { offsetInCU: 0xB631, offset: 0xB631, size: 0x8, addend: 0x0, symName: __ZNSt3__114__split_bufferIPcNS_9allocatorIS1_EEED2Ev, symObjAddr: 0xFA0, symBinAddr: 0x10000425C, symSize: 0x8C }
  - { offsetInCU: 0xB65D, offset: 0xB65D, size: 0x8, addend: 0x0, symName: __ZNSt3__114__split_bufferIPcNS_9allocatorIS1_EEE5clearB8ne180100Ev, symObjAddr: 0x102C, symBinAddr: 0x1000042E8, symSize: 0x28 }
  - { offsetInCU: 0xB683, offset: 0xB683, size: 0x8, addend: 0x0, symName: __ZNSt3__116allocator_traitsINS_9allocatorIPcEEE10deallocateB8ne180100ERS3_PS2_m, symObjAddr: 0x1054, symBinAddr: 0x100004310, symSize: 0x34 }
  - { offsetInCU: 0xB6C5, offset: 0xB6C5, size: 0x8, addend: 0x0, symName: __ZNSt3__114__split_bufferIPcNS_9allocatorIS1_EEE7__allocB8ne180100Ev, symObjAddr: 0x1088, symBinAddr: 0x100004344, symSize: 0x28 }
  - { offsetInCU: 0xB6EB, offset: 0xB6EB, size: 0x8, addend: 0x0, symName: __ZNKSt3__114__split_bufferIPcNS_9allocatorIS1_EEE8capacityB8ne180100Ev, symObjAddr: 0x10B0, symBinAddr: 0x10000436C, symSize: 0x40 }
  - { offsetInCU: 0xB711, offset: 0xB711, size: 0x8, addend: 0x0, symName: __ZNSt3__114__split_bufferIPcNS_9allocatorIS1_EEE17__destruct_at_endB8ne180100EPS1_, symObjAddr: 0x10F0, symBinAddr: 0x1000043AC, symSize: 0x2C }
  - { offsetInCU: 0xB745, offset: 0xB745, size: 0x8, addend: 0x0, symName: __ZNSt3__114__split_bufferIPcNS_9allocatorIS1_EEE17__destruct_at_endB8ne180100EPS1_NS_17integral_constantIbLb0EEE, symObjAddr: 0x111C, symBinAddr: 0x1000043D8, symSize: 0x80 }
  - { offsetInCU: 0xB785, offset: 0xB785, size: 0x8, addend: 0x0, symName: __ZNSt3__116allocator_traitsINS_9allocatorIPcEEE7destroyB8ne180100IS2_vEEvRS3_PT_, symObjAddr: 0x119C, symBinAddr: 0x100004458, symSize: 0x2C }
  - { offsetInCU: 0xB7C2, offset: 0xB7C2, size: 0x8, addend: 0x0, symName: __ZNSt3__19allocatorIPcE7destroyB8ne180100EPS1_, symObjAddr: 0x11DC, symBinAddr: 0x100004498, symSize: 0x14 }
  - { offsetInCU: 0xB7F6, offset: 0xB7F6, size: 0x8, addend: 0x0, symName: __ZNSt3__19allocatorIPcE10deallocateB8ne180100EPS1_m, symObjAddr: 0x11F0, symBinAddr: 0x1000044AC, symSize: 0x40 }
  - { offsetInCU: 0xB838, offset: 0xB838, size: 0x8, addend: 0x0, symName: __ZNSt3__117__compressed_pairIPPcNS_9allocatorIS1_EEE6secondB8ne180100Ev, symObjAddr: 0x1230, symBinAddr: 0x1000044EC, symSize: 0x24 }
  - { offsetInCU: 0xB85E, offset: 0xB85E, size: 0x8, addend: 0x0, symName: __ZNSt3__122__compressed_pair_elemINS_9allocatorIPcEELi1ELb1EE5__getB8ne180100Ev, symObjAddr: 0x1254, symBinAddr: 0x100004510, symSize: 0x14 }
  - { offsetInCU: 0xB884, offset: 0xB884, size: 0x8, addend: 0x0, symName: __ZNKSt3__114__split_bufferIPcNS_9allocatorIS1_EEE9__end_capB8ne180100Ev, symObjAddr: 0x1268, symBinAddr: 0x100004524, symSize: 0x28 }
  - { offsetInCU: 0xB8AA, offset: 0xB8AA, size: 0x8, addend: 0x0, symName: __ZNKSt3__117__compressed_pairIPPcNS_9allocatorIS1_EEE5firstB8ne180100Ev, symObjAddr: 0x1290, symBinAddr: 0x10000454C, symSize: 0x24 }
  - { offsetInCU: 0xB8D0, offset: 0xB8D0, size: 0x8, addend: 0x0, symName: __ZNKSt3__122__compressed_pair_elemIPPcLi0ELb0EE5__getB8ne180100Ev, symObjAddr: 0x12B4, symBinAddr: 0x100004570, symSize: 0x14 }
  - { offsetInCU: 0xB8F6, offset: 0xB8F6, size: 0x8, addend: 0x0, symName: __ZNSt3__15stackIcNS_5dequeIcNS_9allocatorIcEEEEEC2B8ne180100Ev, symObjAddr: 0x12C8, symBinAddr: 0x100004584, symSize: 0x2C }
  - { offsetInCU: 0xB920, offset: 0xB920, size: 0x8, addend: 0x0, symName: __ZNSt3__15dequeIcNS_9allocatorIcEEEC1B8ne180100Ev, symObjAddr: 0x12F4, symBinAddr: 0x1000045B0, symSize: 0x2C }
  - { offsetInCU: 0xB94A, offset: 0xB94A, size: 0x8, addend: 0x0, symName: __ZNSt3__15dequeIcNS_9allocatorIcEEEC2B8ne180100Ev, symObjAddr: 0x1320, symBinAddr: 0x1000045DC, symSize: 0x5C }
  - { offsetInCU: 0xB974, offset: 0xB974, size: 0x8, addend: 0x0, symName: __ZNSt3__114__split_bufferIPcNS_9allocatorIS1_EEEC1B8ne180100Ev, symObjAddr: 0x137C, symBinAddr: 0x100004638, symSize: 0x2C }
  - { offsetInCU: 0xB9A8, offset: 0xB9A8, size: 0x8, addend: 0x0, symName: __ZNSt3__117__compressed_pairImNS_9allocatorIcEEEC1B8ne180100IiNS_18__default_init_tagEEEOT_OT0_, symObjAddr: 0x13A8, symBinAddr: 0x100004664, symSize: 0x3C }
  - { offsetInCU: 0xBA00, offset: 0xBA00, size: 0x8, addend: 0x0, symName: __ZNSt3__114__split_bufferIPcNS_9allocatorIS1_EEEC2B8ne180100Ev, symObjAddr: 0x13E4, symBinAddr: 0x1000046A0, symSize: 0x50 }
  - { offsetInCU: 0xBA2F, offset: 0xBA2F, size: 0x8, addend: 0x0, symName: __ZNSt3__117__compressed_pairIPPcNS_9allocatorIS1_EEEC1B8ne180100IDnNS_18__default_init_tagEEEOT_OT0_, symObjAddr: 0x1434, symBinAddr: 0x1000046F0, symSize: 0x3C }
  - { offsetInCU: 0xBA87, offset: 0xBA87, size: 0x8, addend: 0x0, symName: __ZNSt3__117__compressed_pairIPPcNS_9allocatorIS1_EEEC2B8ne180100IDnNS_18__default_init_tagEEEOT_OT0_, symObjAddr: 0x1470, symBinAddr: 0x10000472C, symSize: 0x40 }
  - { offsetInCU: 0xBADF, offset: 0xBADF, size: 0x8, addend: 0x0, symName: __ZNSt3__122__compressed_pair_elemIPPcLi0ELb0EEC2B8ne180100IDnvEEOT_, symObjAddr: 0x14B0, symBinAddr: 0x10000476C, symSize: 0x1C }
  - { offsetInCU: 0xBB21, offset: 0xBB21, size: 0x8, addend: 0x0, symName: __ZNSt3__122__compressed_pair_elemINS_9allocatorIPcEELi1ELb1EEC2B8ne180100ENS_18__default_init_tagE, symObjAddr: 0x14CC, symBinAddr: 0x100004788, symSize: 0x2C }
  - { offsetInCU: 0xBB55, offset: 0xBB55, size: 0x8, addend: 0x0, symName: __ZNSt3__19allocatorIPcEC2B8ne180100Ev, symObjAddr: 0x14F8, symBinAddr: 0x1000047B4, symSize: 0x2C }
  - { offsetInCU: 0xBB7F, offset: 0xBB7F, size: 0x8, addend: 0x0, symName: __ZNSt3__116__non_trivial_ifILb1ENS_9allocatorIPcEEEC2B8ne180100Ev, symObjAddr: 0x1524, symBinAddr: 0x1000047E0, symSize: 0x14 }
  - { offsetInCU: 0xBBA9, offset: 0xBBA9, size: 0x8, addend: 0x0, symName: __ZNSt3__117__compressed_pairImNS_9allocatorIcEEEC2B8ne180100IiNS_18__default_init_tagEEEOT_OT0_, symObjAddr: 0x1538, symBinAddr: 0x1000047F4, symSize: 0x40 }
  - { offsetInCU: 0xBC01, offset: 0xBC01, size: 0x8, addend: 0x0, symName: __ZNSt3__122__compressed_pair_elemImLi0ELb0EEC2B8ne180100IivEEOT_, symObjAddr: 0x1578, symBinAddr: 0x100004834, symSize: 0x24 }
  - { offsetInCU: 0xBC43, offset: 0xBC43, size: 0x8, addend: 0x0, symName: __ZNSt3__122__compressed_pair_elemINS_9allocatorIcEELi1ELb1EEC2B8ne180100ENS_18__default_init_tagE, symObjAddr: 0x159C, symBinAddr: 0x100004858, symSize: 0x2C }
  - { offsetInCU: 0xBC77, offset: 0xBC77, size: 0x8, addend: 0x0, symName: __ZNSt3__19allocatorIcEC2B8ne180100Ev, symObjAddr: 0x15C8, symBinAddr: 0x100004884, symSize: 0x2C }
  - { offsetInCU: 0xBCA1, offset: 0xBCA1, size: 0x8, addend: 0x0, symName: __ZNSt3__116__non_trivial_ifILb1ENS_9allocatorIcEEEC2B8ne180100Ev, symObjAddr: 0x15F4, symBinAddr: 0x1000048B0, symSize: 0x14 }
  - { offsetInCU: 0xBCCB, offset: 0xBCCB, size: 0x8, addend: 0x0, symName: __ZNSt3__112basic_stringIcNS_11char_traitsIcEENS_9allocatorIcEEE13__fits_in_ssoB8ne180100Em, symObjAddr: 0x1608, symBinAddr: 0x1000048C4, symSize: 0x20 }
  - { offsetInCU: 0xBCEF, offset: 0xBCEF, size: 0x8, addend: 0x0, symName: __ZNSt3__112basic_stringIcNS_11char_traitsIcEENS_9allocatorIcEEE18__get_long_pointerB8ne180100Ev, symObjAddr: 0x1628, symBinAddr: 0x1000048E4, symSize: 0x28 }
  - { offsetInCU: 0xBD15, offset: 0xBD15, size: 0x8, addend: 0x0, symName: __ZNSt3__112basic_stringIcNS_11char_traitsIcEENS_9allocatorIcEEE13__get_pointerB8ne180100Ev, symObjAddr: 0x1650, symBinAddr: 0x10000490C, symSize: 0x54 }
  - { offsetInCU: 0xBD3B, offset: 0xBD3B, size: 0x8, addend: 0x0, symName: __ZNSt3__117__compressed_pairINS_12basic_stringIcNS_11char_traitsIcEENS_9allocatorIcEEE5__repES5_E5firstB8ne180100Ev, symObjAddr: 0x16A4, symBinAddr: 0x100004960, symSize: 0x24 }
  - { offsetInCU: 0xBD61, offset: 0xBD61, size: 0x8, addend: 0x0, symName: __ZNSt3__122__compressed_pair_elemINS_12basic_stringIcNS_11char_traitsIcEENS_9allocatorIcEEE5__repELi0ELb0EE5__getB8ne180100Ev, symObjAddr: 0x16C8, symBinAddr: 0x100004984, symSize: 0x14 }
  - { offsetInCU: 0xBD87, offset: 0xBD87, size: 0x8, addend: 0x0, symName: __ZNKSt3__112basic_stringIcNS_11char_traitsIcEENS_9allocatorIcEEE9__is_longB8ne180100Ev, symObjAddr: 0x16DC, symBinAddr: 0x100004998, symSize: 0x38 }
  - { offsetInCU: 0xBDAD, offset: 0xBDAD, size: 0x8, addend: 0x0, symName: __ZNSt3__112basic_stringIcNS_11char_traitsIcEENS_9allocatorIcEEE19__get_short_pointerB8ne180100Ev, symObjAddr: 0x1714, symBinAddr: 0x1000049D0, symSize: 0x28 }
  - { offsetInCU: 0xBDD3, offset: 0xBDD3, size: 0x8, addend: 0x0, symName: __ZNKSt3__117__compressed_pairINS_12basic_stringIcNS_11char_traitsIcEENS_9allocatorIcEEE5__repES5_E5firstB8ne180100Ev, symObjAddr: 0x173C, symBinAddr: 0x1000049F8, symSize: 0x24 }
  - { offsetInCU: 0xBDF9, offset: 0xBDF9, size: 0x8, addend: 0x0, symName: __ZNKSt3__122__compressed_pair_elemINS_12basic_stringIcNS_11char_traitsIcEENS_9allocatorIcEEE5__repELi0ELb0EE5__getB8ne180100Ev, symObjAddr: 0x1760, symBinAddr: 0x100004A1C, symSize: 0x14 }
  - { offsetInCU: 0xBE1F, offset: 0xBE1F, size: 0x8, addend: 0x0, symName: __ZNSt3__114pointer_traitsIPcE10pointer_toB8ne180100ERc, symObjAddr: 0x1774, symBinAddr: 0x100004A30, symSize: 0x14 }
  - { offsetInCU: 0xBE42, offset: 0xBE42, size: 0x8, addend: 0x0, symName: __ZNKSt3__15dequeIcNS_9allocatorIcEEE5emptyB8ne180100Ev, symObjAddr: 0x1788, symBinAddr: 0x100004A44, symSize: 0x30 }
  - { offsetInCU: 0xBE68, offset: 0xBE68, size: 0x8, addend: 0x0, symName: __ZNSt3__15dequeIcNS_9allocatorIcEEE4backEv, symObjAddr: 0x17B8, symBinAddr: 0x100004A74, symSize: 0x68 }
  - { offsetInCU: 0xBEA0, offset: 0xBEA0, size: 0x8, addend: 0x0, symName: __ZNSt3__15dequeIcNS_9allocatorIcEEE8pop_backEv, symObjAddr: 0x1820, symBinAddr: 0x100004ADC, symSize: 0xE0 }
  - { offsetInCU: 0xBF08, offset: 0xBF08, size: 0x8, addend: 0x0, symName: __ZNKSt3__15dequeIcNS_9allocatorIcEEE22__annotate_shrink_backB8ne180100Emm, symObjAddr: 0x1914, symBinAddr: 0x100004BD0, symSize: 0x18 }
  - { offsetInCU: 0xBF4C, offset: 0xBF4C, size: 0x8, addend: 0x0, symName: __ZNSt3__15dequeIcNS_9allocatorIcEEE25__maybe_remove_back_spareB8ne180100Eb, symObjAddr: 0x192C, symBinAddr: 0x100004BE8, symSize: 0xE8 }
  - { offsetInCU: 0xBF81, offset: 0xBF81, size: 0x8, addend: 0x0, symName: __ZNKSt3__15dequeIcNS_9allocatorIcEEE19__back_spare_blocksB8ne180100Ev, symObjAddr: 0x1A14, symBinAddr: 0x100004CD0, symSize: 0x2C }
  - { offsetInCU: 0xBFA7, offset: 0xBFA7, size: 0x8, addend: 0x0, symName: __ZNKSt3__15dequeIcNS_9allocatorIcEEE22__annotate_whole_blockB8ne180100EmNS3_22__asan_annotation_typeE, symObjAddr: 0x1A40, symBinAddr: 0x100004CFC, symSize: 0x18 }
  - { offsetInCU: 0xBFEB, offset: 0xBFEB, size: 0x8, addend: 0x0, symName: __ZNSt3__114__split_bufferIPcNS_9allocatorIS1_EEE4backB8ne180100Ev, symObjAddr: 0x1A58, symBinAddr: 0x100004D14, symSize: 0x1C }
  - { offsetInCU: 0xC011, offset: 0xC011, size: 0x8, addend: 0x0, symName: __ZNSt3__114__split_bufferIPcNS_9allocatorIS1_EEE8pop_backB8ne180100Ev, symObjAddr: 0x1A74, symBinAddr: 0x100004D30, symSize: 0x2C }
  - { offsetInCU: 0xC037, offset: 0xC037, size: 0x8, addend: 0x0, symName: __ZNKSt3__15dequeIcNS_9allocatorIcEEE12__back_spareB8ne180100Ev, symObjAddr: 0x1AA0, symBinAddr: 0x100004D5C, symSize: 0x54 }
  - { offsetInCU: 0xC05D, offset: 0xC05D, size: 0x8, addend: 0x0, symName: __ZNKSt3__15dequeIcNS_9allocatorIcEEE10__capacityB8ne180100Ev, symObjAddr: 0x1AF4, symBinAddr: 0x100004DB0, symSize: 0x60 }
  - { offsetInCU: 0xC083, offset: 0xC083, size: 0x8, addend: 0x0, symName: __ZNSt3__15dequeIcNS_9allocatorIcEEE9push_backERKc, symObjAddr: 0x1B54, symBinAddr: 0x100004E10, symSize: 0xAC }
  - { offsetInCU: 0xC0CA, offset: 0xC0CA, size: 0x8, addend: 0x0, symName: __ZNSt3__15dequeIcNS_9allocatorIcEEE19__add_back_capacityEv, symObjAddr: 0x1C00, symBinAddr: 0x100004EBC, symSize: 0x34C }
  - { offsetInCU: 0xC188, offset: 0xC188, size: 0x8, addend: 0x0, symName: __ZNKSt3__15dequeIcNS_9allocatorIcEEE24__annotate_increase_backB8ne180100Em, symObjAddr: 0x1F4C, symBinAddr: 0x100005208, symSize: 0x14 }
  - { offsetInCU: 0xC1BD, offset: 0xC1BD, size: 0x8, addend: 0x0, symName: __ZNSt3__116allocator_traitsINS_9allocatorIcEEE9constructB8ne180100IcJRKcEvEEvRS2_PT_DpOT0_, symObjAddr: 0x1F60, symBinAddr: 0x10000521C, symSize: 0x34 }
  - { offsetInCU: 0xC214, offset: 0xC214, size: 0x8, addend: 0x0, symName: __ZNKSt3__15dequeIcNS_9allocatorIcEEE13__front_spareB8ne180100Ev, symObjAddr: 0x1F94, symBinAddr: 0x100005250, symSize: 0x18 }
  - { offsetInCU: 0xC23A, offset: 0xC23A, size: 0x8, addend: 0x0, symName: __ZNSt3__114__split_bufferIPcNS_9allocatorIS1_EEE9push_backB8ne180100ERKS1_, symObjAddr: 0x1FAC, symBinAddr: 0x100005268, symSize: 0x260 }
  - { offsetInCU: 0xC2B6, offset: 0xC2B6, size: 0x8, addend: 0x0, symName: __ZNKSt3__114__split_bufferIPcNS_9allocatorIS1_EEE12__back_spareB8ne180100Ev, symObjAddr: 0x220C, symBinAddr: 0x1000054C8, symSize: 0x40 }
  - { offsetInCU: 0xC2DC, offset: 0xC2DC, size: 0x8, addend: 0x0, symName: __ZNSt3__114__split_bufferIPcNS_9allocatorIS1_EEE9push_backEOS1_, symObjAddr: 0x224C, symBinAddr: 0x100005508, symSize: 0x260 }
  - { offsetInCU: 0xC358, offset: 0xC358, size: 0x8, addend: 0x0, symName: __ZNSt3__116allocator_traitsINS_9allocatorIcEEE8allocateB8ne180100ERS2_m, symObjAddr: 0x24AC, symBinAddr: 0x100005768, symSize: 0x2C }
  - { offsetInCU: 0xC38B, offset: 0xC38B, size: 0x8, addend: 0x0, symName: __ZNSt3__114__split_bufferIPcNS_9allocatorIS1_EEE10push_frontEOS1_, symObjAddr: 0x24D8, symBinAddr: 0x100005794, symSize: 0x25C }
  - { offsetInCU: 0xC407, offset: 0xC407, size: 0x8, addend: 0x0, symName: __ZNSt3__114__split_bufferIPcRNS_9allocatorIS1_EEEC1EmmS4_, symObjAddr: 0x2760, symBinAddr: 0x100005A1C, symSize: 0x44 }
  - { offsetInCU: 0xC462, offset: 0xC462, size: 0x8, addend: 0x0, symName: __ZNSt3__122__allocator_destructorINS_9allocatorIcEEEC1B8ne180100ERS2_m, symObjAddr: 0x27A4, symBinAddr: 0x100005A60, symSize: 0x3C }
  - { offsetInCU: 0xC525, offset: 0xC525, size: 0x8, addend: 0x0, symName: __ZNSt3__110unique_ptrIPcNS_22__allocator_destructorINS_9allocatorIcEEEEEC1B8ne180100ILb1EvEES1_NS_16__dependent_typeINS_27__unique_ptr_deleter_sfinaeIS5_EEXT_EE20__good_rval_ref_typeE, symObjAddr: 0x27E0, symBinAddr: 0x100005A9C, symSize: 0x3C }
  - { offsetInCU: 0xC576, offset: 0xC576, size: 0x8, addend: 0x0, symName: __ZNSt3__114__split_bufferIPcRNS_9allocatorIS1_EEE9push_backEOS1_, symObjAddr: 0x281C, symBinAddr: 0x100005AD8, symSize: 0x260 }
  - { offsetInCU: 0xC5F2, offset: 0xC5F2, size: 0x8, addend: 0x0, symName: __ZNKSt3__110unique_ptrIPcNS_22__allocator_destructorINS_9allocatorIcEEEEE3getB8ne180100Ev, symObjAddr: 0x2A7C, symBinAddr: 0x100005D38, symSize: 0x28 }
  - { offsetInCU: 0xC618, offset: 0xC618, size: 0x8, addend: 0x0, symName: __ZNSt3__110unique_ptrIPcNS_22__allocator_destructorINS_9allocatorIcEEEEE7releaseB8ne180100Ev, symObjAddr: 0x2AA4, symBinAddr: 0x100005D60, symSize: 0x44 }
  - { offsetInCU: 0xC64E, offset: 0xC64E, size: 0x8, addend: 0x0, symName: __ZNSt3__114__split_bufferIPcRNS_9allocatorIS1_EEE10push_frontERKS1_, symObjAddr: 0x2AE8, symBinAddr: 0x100005DA4, symSize: 0x25C }
  - { offsetInCU: 0xC6CA, offset: 0xC6CA, size: 0x8, addend: 0x0, symName: __ZNSt3__114__split_bufferIPcNS_9allocatorIS1_EEE9__end_capB8ne180100Ev, symObjAddr: 0x2D80, symBinAddr: 0x10000603C, symSize: 0x28 }
  - { offsetInCU: 0xC6F0, offset: 0xC6F0, size: 0x8, addend: 0x0, symName: __ZNSt3__114__split_bufferIPcRNS_9allocatorIS1_EEE9__end_capB8ne180100Ev, symObjAddr: 0x2DA8, symBinAddr: 0x100006064, symSize: 0x28 }
  - { offsetInCU: 0xC716, offset: 0xC716, size: 0x8, addend: 0x0, symName: __ZNSt3__110unique_ptrIPcNS_22__allocator_destructorINS_9allocatorIcEEEEED1B8ne180100Ev, symObjAddr: 0x2DD0, symBinAddr: 0x10000608C, symSize: 0x2C }
  - { offsetInCU: 0xC740, offset: 0xC740, size: 0x8, addend: 0x0, symName: __ZNSt3__114__split_bufferIPcRNS_9allocatorIS1_EEED1Ev, symObjAddr: 0x2DFC, symBinAddr: 0x1000060B8, symSize: 0x2C }
  - { offsetInCU: 0xC76C, offset: 0xC76C, size: 0x8, addend: 0x0, symName: __ZNSt3__114__split_bufferIPcRNS_9allocatorIS1_EEE18__construct_at_endINS_13move_iteratorIPS1_EELi0EEEvT_SA_, symObjAddr: 0x2E68, symBinAddr: 0x100006124, symSize: 0x60 }
  - { offsetInCU: 0xC7BF, offset: 0xC7BF, size: 0x8, addend: 0x0, symName: __ZNSt3__113move_iteratorIPPcEC1B8ne180100ES2_, symObjAddr: 0x2EC8, symBinAddr: 0x100006184, symSize: 0x34 }
  - { offsetInCU: 0xC7F7, offset: 0xC7F7, size: 0x8, addend: 0x0, symName: __ZNSt3__116allocator_traitsINS_9allocatorIPcEEE9constructB8ne180100IS2_JRKS2_EvEEvRS3_PT_DpOT0_, symObjAddr: 0x2EFC, symBinAddr: 0x1000061B8, symSize: 0x34 }
  - { offsetInCU: 0xC871, offset: 0xC871, size: 0x8, addend: 0x0, symName: __ZNKSt3__114__move_trivialclB8ne180100IPcS2_Li0EEENS_4pairIPT_PT0_EES5_S5_S7_, symObjAddr: 0x30CC, symBinAddr: 0x100006388, symSize: 0x48 }
  - { offsetInCU: 0xC8DE, offset: 0xC8DE, size: 0x8, addend: 0x0, symName: __ZNSt3__14pairIPPcS2_EC1B8ne180100IRS2_S2_Li0EEEOT_OT0_, symObjAddr: 0x32F4, symBinAddr: 0x1000065B0, symSize: 0x3C }
  - { offsetInCU: 0xC93C, offset: 0xC93C, size: 0x8, addend: 0x0, symName: __ZNSt3__14pairIPPcS2_EC2B8ne180100IRS2_S2_Li0EEEOT_OT0_, symObjAddr: 0x3330, symBinAddr: 0x1000065EC, symSize: 0x34 }
  - { offsetInCU: 0xC99A, offset: 0xC99A, size: 0x8, addend: 0x0, symName: __ZNSt3__118__unwrap_iter_implIPPcLb1EE8__unwrapB8ne180100ES2_, symObjAddr: 0x3364, symBinAddr: 0x100006620, symSize: 0x24 }
  - { offsetInCU: 0xC9BD, offset: 0xC9BD, size: 0x8, addend: 0x0, symName: __ZNSt3__14pairIPPcS2_EC1B8ne180100IS2_S2_Li0EEEOT_OT0_, symObjAddr: 0x3388, symBinAddr: 0x100006644, symSize: 0x3C }
  - { offsetInCU: 0xCA1B, offset: 0xCA1B, size: 0x8, addend: 0x0, symName: __ZNSt3__14pairIPPcS2_EC2B8ne180100IS2_S2_Li0EEEOT_OT0_, symObjAddr: 0x33C4, symBinAddr: 0x100006680, symSize: 0x34 }
  - { offsetInCU: 0xCA79, offset: 0xCA79, size: 0x8, addend: 0x0, symName: __ZNSt3__118__unwrap_iter_implIPPcLb1EE8__rewrapB8ne180100ES2_S2_, symObjAddr: 0x33F8, symBinAddr: 0x1000066B4, symSize: 0x50 }
  - { offsetInCU: 0xCAAA, offset: 0xCAAA, size: 0x8, addend: 0x0, symName: __ZNSt3__114__split_bufferIPcRNS_9allocatorIS1_EEE28__construct_at_end_with_sizeINS_13move_iteratorIPS1_EEEEvT_m, symObjAddr: 0x3448, symBinAddr: 0x100006704, symSize: 0xDC }
  - { offsetInCU: 0xCB11, offset: 0xCB11, size: 0x8, addend: 0x0, symName: __ZNSt3__114__split_bufferIPcRNS_9allocatorIS1_EEE21_ConstructTransactionC1B8ne180100EPPS1_m, symObjAddr: 0x3560, symBinAddr: 0x10000681C, symSize: 0x3C }
  - { offsetInCU: 0xCB57, offset: 0xCB57, size: 0x8, addend: 0x0, symName: __ZNSt3__116allocator_traitsINS_9allocatorIPcEEE9constructB8ne180100IS2_JS2_EvEEvRS3_PT_DpOT0_, symObjAddr: 0x359C, symBinAddr: 0x100006858, symSize: 0x34 }
  - { offsetInCU: 0xCBAE, offset: 0xCBAE, size: 0x8, addend: 0x0, symName: __ZNSt3__114__split_bufferIPcRNS_9allocatorIS1_EEE7__allocB8ne180100Ev, symObjAddr: 0x35D0, symBinAddr: 0x10000688C, symSize: 0x28 }
  - { offsetInCU: 0xCBD4, offset: 0xCBD4, size: 0x8, addend: 0x0, symName: __ZNKSt3__113move_iteratorIPPcEdeB8ne180100Ev, symObjAddr: 0x35F8, symBinAddr: 0x1000068B4, symSize: 0x18 }
  - { offsetInCU: 0xCBFA, offset: 0xCBFA, size: 0x8, addend: 0x0, symName: __ZNSt3__113move_iteratorIPPcEppB8ne180100Ev, symObjAddr: 0x3610, symBinAddr: 0x1000068CC, symSize: 0x20 }
  - { offsetInCU: 0xCC20, offset: 0xCC20, size: 0x8, addend: 0x0, symName: __ZNSt3__114__split_bufferIPcRNS_9allocatorIS1_EEE21_ConstructTransactionD1B8ne180100Ev, symObjAddr: 0x3630, symBinAddr: 0x1000068EC, symSize: 0x2C }
  - { offsetInCU: 0xCC4A, offset: 0xCC4A, size: 0x8, addend: 0x0, symName: __ZNSt3__114__split_bufferIPcRNS_9allocatorIS1_EEE21_ConstructTransactionC2B8ne180100EPPS1_m, symObjAddr: 0x365C, symBinAddr: 0x100006918, symSize: 0x44 }
  - { offsetInCU: 0xCC90, offset: 0xCC90, size: 0x8, addend: 0x0, symName: __ZNSt3__19allocatorIPcE9constructB8ne180100IS1_JS1_EEEvPT_DpOT0_, symObjAddr: 0x36A0, symBinAddr: 0x10000695C, symSize: 0x28 }
  - { offsetInCU: 0xCCE6, offset: 0xCCE6, size: 0x8, addend: 0x0, symName: __ZNSt3__117__compressed_pairIPPcRNS_9allocatorIS1_EEE6secondB8ne180100Ev, symObjAddr: 0x36C8, symBinAddr: 0x100006984, symSize: 0x28 }
  - { offsetInCU: 0xCD0C, offset: 0xCD0C, size: 0x8, addend: 0x0, symName: __ZNSt3__122__compressed_pair_elemIRNS_9allocatorIPcEELi1ELb0EE5__getB8ne180100Ev, symObjAddr: 0x36F0, symBinAddr: 0x1000069AC, symSize: 0x18 }
  - { offsetInCU: 0xCD32, offset: 0xCD32, size: 0x8, addend: 0x0, symName: __ZNSt3__114__split_bufferIPcRNS_9allocatorIS1_EEE21_ConstructTransactionD2B8ne180100Ev, symObjAddr: 0x3708, symBinAddr: 0x1000069C4, symSize: 0x20 }
  - { offsetInCU: 0xCD5C, offset: 0xCD5C, size: 0x8, addend: 0x0, symName: __ZNKSt3__113move_iteratorIPPcE4baseB8ne180100Ev, symObjAddr: 0x37A0, symBinAddr: 0x100006A5C, symSize: 0x18 }
  - { offsetInCU: 0xCD82, offset: 0xCD82, size: 0x8, addend: 0x0, symName: __ZNSt3__113move_iteratorIPPcEC2B8ne180100ES2_, symObjAddr: 0x37B8, symBinAddr: 0x100006A74, symSize: 0x20 }
  - { offsetInCU: 0xCDBA, offset: 0xCDBA, size: 0x8, addend: 0x0, symName: __ZNSt3__19allocatorIPcE9constructB8ne180100IS1_JRKS1_EEEvPT_DpOT0_, symObjAddr: 0x37D8, symBinAddr: 0x100006A94, symSize: 0x28 }
  - { offsetInCU: 0xCE10, offset: 0xCE10, size: 0x8, addend: 0x0, symName: __ZNSt3__19allocatorIcE8allocateB8ne180100Em, symObjAddr: 0x3800, symBinAddr: 0x100006ABC, symSize: 0x58 }
  - { offsetInCU: 0xCE4E, offset: 0xCE4E, size: 0x8, addend: 0x0, symName: __ZNSt3__116allocator_traitsINS_9allocatorIcEEE8max_sizeB8ne180100IS2_vEEmRKS2_, symObjAddr: 0x3858, symBinAddr: 0x100006B14, symSize: 0x24 }
  - { offsetInCU: 0xCE7C, offset: 0xCE7C, size: 0x8, addend: 0x0, symName: __ZNKSt3__19allocatorIcE8max_sizeB8ne180100Ev, symObjAddr: 0x38D8, symBinAddr: 0x100006B94, symSize: 0x14 }
  - { offsetInCU: 0xCEAC, offset: 0xCEAC, size: 0x8, addend: 0x0, symName: __ZNKSt3__123__move_backward_trivialclB8ne180100IPcS2_Li0EEENS_4pairIPT_PT0_EES5_S5_S7_, symObjAddr: 0x3A8C, symBinAddr: 0x100006D48, symSize: 0x48 }
  - { offsetInCU: 0xCF14, offset: 0xCF14, size: 0x8, addend: 0x0, symName: __ZNSt3__14pairIPPcS2_EC1B8ne180100IRS2_S5_Li0EEEOT_OT0_, symObjAddr: 0x3B9C, symBinAddr: 0x100006E58, symSize: 0x3C }
  - { offsetInCU: 0xCF72, offset: 0xCF72, size: 0x8, addend: 0x0, symName: __ZNSt3__14pairIPPcS2_EC2B8ne180100IRS2_S5_Li0EEEOT_OT0_, symObjAddr: 0x3BD8, symBinAddr: 0x100006E94, symSize: 0x34 }
  - { offsetInCU: 0xCFDA, offset: 0xCFDA, size: 0x8, addend: 0x0, symName: __ZNKSt3__16__lessIvvEclB8ne180100ImmEEbRKT_RKT0_, symObjAddr: 0x3C60, symBinAddr: 0x100006F1C, symSize: 0x34 }
  - { offsetInCU: 0xD02E, offset: 0xD02E, size: 0x8, addend: 0x0, symName: __ZNSt3__114__split_bufferIPcRNS_9allocatorIS1_EEEC2EmmS4_, symObjAddr: 0x3C94, symBinAddr: 0x100006F50, symSize: 0xD4 }
  - { offsetInCU: 0xD0A3, offset: 0xD0A3, size: 0x8, addend: 0x0, symName: __ZNSt3__117__compressed_pairIPPcRNS_9allocatorIS1_EEEC1B8ne180100IDnS5_EEOT_OT0_, symObjAddr: 0x3D68, symBinAddr: 0x100007024, symSize: 0x3C }
  - { offsetInCU: 0xD0FB, offset: 0xD0FB, size: 0x8, addend: 0x0, symName: __ZNSt3__117__compressed_pairIPPcRNS_9allocatorIS1_EEEC2B8ne180100IDnS5_EEOT_OT0_, symObjAddr: 0x3DE4, symBinAddr: 0x1000070A0, symSize: 0x48 }
  - { offsetInCU: 0xD153, offset: 0xD153, size: 0x8, addend: 0x0, symName: __ZNSt3__122__compressed_pair_elemIRNS_9allocatorIPcEELi1ELb0EEC2B8ne180100IS4_vEEOT_, symObjAddr: 0x3E2C, symBinAddr: 0x1000070E8, symSize: 0x20 }
  - { offsetInCU: 0xD195, offset: 0xD195, size: 0x8, addend: 0x0, symName: __ZNSt3__19allocatorIPcE8allocateB8ne180100Em, symObjAddr: 0x3E4C, symBinAddr: 0x100007108, symSize: 0x58 }
  - { offsetInCU: 0xD1D3, offset: 0xD1D3, size: 0x8, addend: 0x0, symName: __ZNSt3__116allocator_traitsINS_9allocatorIPcEEE8max_sizeB8ne180100IS3_vEEmRKS3_, symObjAddr: 0x3EA4, symBinAddr: 0x100007160, symSize: 0x24 }
  - { offsetInCU: 0xD201, offset: 0xD201, size: 0x8, addend: 0x0, symName: __ZNKSt3__19allocatorIPcE8max_sizeB8ne180100Ev, symObjAddr: 0x3EC8, symBinAddr: 0x100007184, symSize: 0x14 }
  - { offsetInCU: 0xD227, offset: 0xD227, size: 0x8, addend: 0x0, symName: __ZNSt3__122__allocator_destructorINS_9allocatorIcEEEC2B8ne180100ERS2_m, symObjAddr: 0x3EDC, symBinAddr: 0x100007198, symSize: 0x2C }
  - { offsetInCU: 0xD26D, offset: 0xD26D, size: 0x8, addend: 0x0, symName: __ZNSt3__110unique_ptrIPcNS_22__allocator_destructorINS_9allocatorIcEEEEEC2B8ne180100ILb1EvEES1_NS_16__dependent_typeINS_27__unique_ptr_deleter_sfinaeIS5_EEXT_EE20__good_rval_ref_typeE, symObjAddr: 0x3F08, symBinAddr: 0x1000071C4, symSize: 0x48 }
  - { offsetInCU: 0xD2BE, offset: 0xD2BE, size: 0x8, addend: 0x0, symName: __ZNSt3__117__compressed_pairIPcNS_22__allocator_destructorINS_9allocatorIcEEEEEC1B8ne180100IRS1_S5_EEOT_OT0_, symObjAddr: 0x3F50, symBinAddr: 0x10000720C, symSize: 0x3C }
  - { offsetInCU: 0xD316, offset: 0xD316, size: 0x8, addend: 0x0, symName: __ZNSt3__117__compressed_pairIPcNS_22__allocator_destructorINS_9allocatorIcEEEEEC2B8ne180100IRS1_S5_EEOT_OT0_, symObjAddr: 0x3F8C, symBinAddr: 0x100007248, symSize: 0x48 }
  - { offsetInCU: 0xD36E, offset: 0xD36E, size: 0x8, addend: 0x0, symName: __ZNSt3__122__compressed_pair_elemIPcLi0ELb0EEC2B8ne180100IRS1_vEEOT_, symObjAddr: 0x3FD4, symBinAddr: 0x100007290, symSize: 0x24 }
  - { offsetInCU: 0xD3B0, offset: 0xD3B0, size: 0x8, addend: 0x0, symName: __ZNSt3__122__compressed_pair_elemINS_22__allocator_destructorINS_9allocatorIcEEEELi1ELb0EEC2B8ne180100IS4_vEEOT_, symObjAddr: 0x3FF8, symBinAddr: 0x1000072B4, symSize: 0x24 }
  - { offsetInCU: 0xD3F2, offset: 0xD3F2, size: 0x8, addend: 0x0, symName: __ZNKSt3__117__compressed_pairIPcNS_22__allocator_destructorINS_9allocatorIcEEEEE5firstB8ne180100Ev, symObjAddr: 0x401C, symBinAddr: 0x1000072D8, symSize: 0x24 }
  - { offsetInCU: 0xD418, offset: 0xD418, size: 0x8, addend: 0x0, symName: __ZNKSt3__122__compressed_pair_elemIPcLi0ELb0EE5__getB8ne180100Ev, symObjAddr: 0x4040, symBinAddr: 0x1000072FC, symSize: 0x14 }
  - { offsetInCU: 0xD43E, offset: 0xD43E, size: 0x8, addend: 0x0, symName: __ZNSt3__117__compressed_pairIPcNS_22__allocator_destructorINS_9allocatorIcEEEEE5firstB8ne180100Ev, symObjAddr: 0x4054, symBinAddr: 0x100007310, symSize: 0x24 }
  - { offsetInCU: 0xD464, offset: 0xD464, size: 0x8, addend: 0x0, symName: __ZNSt3__122__compressed_pair_elemIPcLi0ELb0EE5__getB8ne180100Ev, symObjAddr: 0x4078, symBinAddr: 0x100007334, symSize: 0x14 }
  - { offsetInCU: 0xD48A, offset: 0xD48A, size: 0x8, addend: 0x0, symName: __ZNSt3__117__compressed_pairIPPcNS_9allocatorIS1_EEE5firstB8ne180100Ev, symObjAddr: 0x408C, symBinAddr: 0x100007348, symSize: 0x24 }
  - { offsetInCU: 0xD4B0, offset: 0xD4B0, size: 0x8, addend: 0x0, symName: __ZNSt3__122__compressed_pair_elemIPPcLi0ELb0EE5__getB8ne180100Ev, symObjAddr: 0x40B0, symBinAddr: 0x10000736C, symSize: 0x14 }
  - { offsetInCU: 0xD4D6, offset: 0xD4D6, size: 0x8, addend: 0x0, symName: __ZNSt3__117__compressed_pairIPPcRNS_9allocatorIS1_EEE5firstB8ne180100Ev, symObjAddr: 0x40C4, symBinAddr: 0x100007380, symSize: 0x24 }
  - { offsetInCU: 0xD4FC, offset: 0xD4FC, size: 0x8, addend: 0x0, symName: __ZNSt3__110unique_ptrIPcNS_22__allocator_destructorINS_9allocatorIcEEEEED2B8ne180100Ev, symObjAddr: 0x40E8, symBinAddr: 0x1000073A4, symSize: 0x30 }
  - { offsetInCU: 0xD526, offset: 0xD526, size: 0x8, addend: 0x0, symName: __ZNSt3__110unique_ptrIPcNS_22__allocator_destructorINS_9allocatorIcEEEEE5resetB8ne180100ES1_, symObjAddr: 0x4118, symBinAddr: 0x1000073D4, symSize: 0x78 }
  - { offsetInCU: 0xD56B, offset: 0xD56B, size: 0x8, addend: 0x0, symName: __ZNSt3__117__compressed_pairIPcNS_22__allocator_destructorINS_9allocatorIcEEEEE6secondB8ne180100Ev, symObjAddr: 0x4190, symBinAddr: 0x10000744C, symSize: 0x28 }
  - { offsetInCU: 0xD591, offset: 0xD591, size: 0x8, addend: 0x0, symName: __ZNSt3__122__allocator_destructorINS_9allocatorIcEEEclB8ne180100EPc, symObjAddr: 0x41B8, symBinAddr: 0x100007474, symSize: 0x34 }
  - { offsetInCU: 0xD5C5, offset: 0xD5C5, size: 0x8, addend: 0x0, symName: __ZNSt3__122__compressed_pair_elemINS_22__allocator_destructorINS_9allocatorIcEEEELi1ELb0EE5__getB8ne180100Ev, symObjAddr: 0x41EC, symBinAddr: 0x1000074A8, symSize: 0x14 }
  - { offsetInCU: 0xD5EB, offset: 0xD5EB, size: 0x8, addend: 0x0, symName: __ZNSt3__114__split_bufferIPcRNS_9allocatorIS1_EEED2Ev, symObjAddr: 0x4200, symBinAddr: 0x1000074BC, symSize: 0x8C }
  - { offsetInCU: 0xD617, offset: 0xD617, size: 0x8, addend: 0x0, symName: __ZNSt3__114__split_bufferIPcRNS_9allocatorIS1_EEE5clearB8ne180100Ev, symObjAddr: 0x428C, symBinAddr: 0x100007548, symSize: 0x28 }
  - { offsetInCU: 0xD63D, offset: 0xD63D, size: 0x8, addend: 0x0, symName: __ZNKSt3__114__split_bufferIPcRNS_9allocatorIS1_EEE8capacityB8ne180100Ev, symObjAddr: 0x42B4, symBinAddr: 0x100007570, symSize: 0x40 }
  - { offsetInCU: 0xD663, offset: 0xD663, size: 0x8, addend: 0x0, symName: __ZNSt3__114__split_bufferIPcRNS_9allocatorIS1_EEE17__destruct_at_endB8ne180100EPS1_, symObjAddr: 0x42F4, symBinAddr: 0x1000075B0, symSize: 0x2C }
  - { offsetInCU: 0xD697, offset: 0xD697, size: 0x8, addend: 0x0, symName: __ZNSt3__114__split_bufferIPcRNS_9allocatorIS1_EEE17__destruct_at_endB8ne180100EPS1_NS_17integral_constantIbLb0EEE, symObjAddr: 0x4320, symBinAddr: 0x1000075DC, symSize: 0x80 }
  - { offsetInCU: 0xD6D7, offset: 0xD6D7, size: 0x8, addend: 0x0, symName: __ZNKSt3__114__split_bufferIPcRNS_9allocatorIS1_EEE9__end_capB8ne180100Ev, symObjAddr: 0x43A0, symBinAddr: 0x10000765C, symSize: 0x28 }
  - { offsetInCU: 0xD6FD, offset: 0xD6FD, size: 0x8, addend: 0x0, symName: __ZNKSt3__117__compressed_pairIPPcRNS_9allocatorIS1_EEE5firstB8ne180100Ev, symObjAddr: 0x43C8, symBinAddr: 0x100007684, symSize: 0x24 }
  - { offsetInCU: 0xD723, offset: 0xD723, size: 0x8, addend: 0x0, symName: __ZNSt3__19allocatorIcE9constructB8ne180100IcJRKcEEEvPT_DpOT0_, symObjAddr: 0x43EC, symBinAddr: 0x1000076A8, symSize: 0x28 }
  - { offsetInCU: 0xD779, offset: 0xD779, size: 0x8, addend: 0x0, symName: __ZNSt3__112basic_stringIcNS_11char_traitsIcEENS_9allocatorIcEEEC2B8ne180100ILi0EEEPKc, symObjAddr: 0x4414, symBinAddr: 0x1000076D0, symSize: 0x58 }
  - { offsetInCU: 0xD7B8, offset: 0xD7B8, size: 0x8, addend: 0x0, symName: __ZNSt3__117__compressed_pairINS_12basic_stringIcNS_11char_traitsIcEENS_9allocatorIcEEE5__repES5_EC1B8ne180100INS_18__default_init_tagESA_EEOT_OT0_, symObjAddr: 0x446C, symBinAddr: 0x100007728, symSize: 0x3C }
  - { offsetInCU: 0xD810, offset: 0xD810, size: 0x8, addend: 0x0, symName: __ZNSt3__111char_traitsIcE6lengthB8ne180100EPKc, symObjAddr: 0x44A8, symBinAddr: 0x100007764, symSize: 0x34 }
  - { offsetInCU: 0xD833, offset: 0xD833, size: 0x8, addend: 0x0, symName: __ZNSt3__117__compressed_pairINS_12basic_stringIcNS_11char_traitsIcEENS_9allocatorIcEEE5__repES5_EC2B8ne180100INS_18__default_init_tagESA_EEOT_OT0_, symObjAddr: 0x44DC, symBinAddr: 0x100007798, symSize: 0x3C }
  - { offsetInCU: 0xD88B, offset: 0xD88B, size: 0x8, addend: 0x0, symName: __ZNSt3__122__compressed_pair_elemINS_12basic_stringIcNS_11char_traitsIcEENS_9allocatorIcEEE5__repELi0ELb0EEC2B8ne180100ENS_18__default_init_tagE, symObjAddr: 0x4518, symBinAddr: 0x1000077D4, symSize: 0x14 }
  - { offsetInCU: 0xD8BF, offset: 0xD8BF, size: 0x8, addend: 0x0, symName: __ZNKSt3__112basic_stringIcNS_11char_traitsIcEENS_9allocatorIcEEE15__get_long_sizeB8ne180100Ev, symObjAddr: 0x4550, symBinAddr: 0x10000780C, symSize: 0x28 }
  - { offsetInCU: 0xD8E5, offset: 0xD8E5, size: 0x8, addend: 0x0, symName: __ZNKSt3__112basic_stringIcNS_11char_traitsIcEENS_9allocatorIcEEE16__get_short_sizeB8ne180100Ev, symObjAddr: 0x4578, symBinAddr: 0x100007834, symSize: 0x34 }
  - { offsetInCU: 0xD90B, offset: 0xD90B, size: 0x8, addend: 0x0, symName: __ZNKSt3__19basic_iosIcNS_11char_traitsIcEEE5widenB8ne180100Ec, symObjAddr: 0x45AC, symBinAddr: 0x100007868, symSize: 0x84 }
  - { offsetInCU: 0xD974, offset: 0xD974, size: 0x8, addend: 0x0, symName: __ZNKSt3__15ctypeIcE5widenB8ne180100Ec, symObjAddr: 0x465C, symBinAddr: 0x100007918, symSize: 0x38 }
...
